; ModuleID = '32/1560.c'
source_filename = "32/1560.c"
target datalayout = "e-m:e-p270:32:32-p271:32:32-p272:64:64-i64:64-f80:128-n8:16:32:64-S128"
target triple = "x86_64-pc-linux-gnu"

@.str = private unnamed_addr constant [3 x i8] c"%d\00", align 1
@.str.1 = private unnamed_addr constant [3 x i8] c"%s\00", align 1
@.str.2 = private unnamed_addr constant [2 x i8] c"\0A\00", align 1

; Function Attrs: noinline nounwind uwtable
define dso_local void @main() #0 {
  %1 = alloca i32, align 4
  %2 = alloca i32, align 4
  %3 = alloca [1000 x i8], align 16
  %4 = alloca [1000 x i8], align 16
  %5 = bitcast [1000 x i8]* %3 to i8*
  call void @llvm.memset.p0i8.i64(i8* align 16 %5, i8 0, i64 1000, i1 false)
  %6 = bitcast [1000 x i8]* %4 to i8*
  call void @llvm.memset.p0i8.i64(i8* align 16 %6, i8 0, i64 1000, i1 false)
  %7 = call i32 (i8*, ...) @__isoc99_scanf(i8* getelementptr inbounds ([3 x i8], [3 x i8]* @.str, i64 0, i64 0), i32* %2)
  store i32 0, i32* %1, align 4
  br label %8

8:                                                ; preds = %27, %0
  %9 = load i32, i32* %1, align 4
  %10 = load i32, i32* %2, align 4
  %11 = icmp slt i32 %9, %10
  br i1 %11, label %12, label %28

12:                                               ; preds = %8
  %13 = getelementptr inbounds [1000 x i8], [1000 x i8]* %3, i64 0, i64 0
  %14 = call i32 (i8*, ...) @__isoc99_scanf(i8* getelementptr inbounds ([3 x i8], [3 x i8]* @.str.1, i64 0, i64 0), i8* %13)
  %15 = getelementptr inbounds [1000 x i8], [1000 x i8]* %4, i64 0, i64 0
  %16 = call i32 (i8*, ...) @__isoc99_scanf(i8* getelementptr inbounds ([3 x i8], [3 x i8]* @.str.1, i64 0, i64 0), i8* %15)
  %17 = getelementptr inbounds [1000 x i8], [1000 x i8]* %3, i64 0, i64 0
  %18 = load i8, i8* %17, align 16
  %19 = sext i8 %18 to i32
  %20 = icmp ne i32 %19, 0
  br i1 %20, label %21, label %27

21:                                               ; preds = %12
  %22 = load i32, i32* %1, align 4
  %23 = add nsw i32 %22, 1
  store i32 %23, i32* %1, align 4
  %24 = getelementptr inbounds [1000 x i8], [1000 x i8]* %3, i64 0, i64 0
  %25 = getelementptr inbounds [1000 x i8], [1000 x i8]* %4, i64 0, i64 0
  call void @minus(i8* %24, i8* %25)
  %26 = call i32 (i8*, ...) @printf(i8* getelementptr inbounds ([2 x i8], [2 x i8]* @.str.2, i64 0, i64 0))
  br label %27

27:                                               ; preds = %21, %12
  br label %8

28:                                               ; preds = %8
  ret void
}

; Function Attrs: argmemonly nounwind willreturn
declare void @llvm.memset.p0i8.i64(i8* nocapture writeonly, i8, i64, i1 immarg) #1

declare dso_local i32 @__isoc99_scanf(i8*, ...) #2

; Function Attrs: noinline nounwind uwtable
define dso_local void @minus(i8* %0, i8* %1) #0 {
  %3 = alloca i8*, align 8
  %4 = alloca i8*, align 8
  %5 = alloca i32, align 4
  %6 = alloca i32, align 4
  %7 = alloca i32, align 4
  %8 = alloca i32, align 4
  %9 = alloca i32, align 4
  %10 = alloca i32, align 4
  %11 = alloca i32, align 4
  %12 = alloca [1000 x i8], align 16
  %13 = alloca i8, align 1
  store i8* %0, i8** %3, align 8
  store i8* %1, i8** %4, align 8
  store i32 0, i32* %9, align 4
  store i32 0, i32* %10, align 4
  %14 = bitcast [1000 x i8]* %12 to i8*
  call void @llvm.memset.p0i8.i64(i8* align 16 %14, i8 0, i64 1000, i1 false)
  %15 = load i8*, i8** %3, align 8
  %16 = call i64 @strlen(i8* %15) #4
  %17 = trunc i64 %16 to i32
  store i32 %17, i32* %5, align 4
  %18 = load i8*, i8** %4, align 8
  %19 = call i64 @strlen(i8* %18) #4
  %20 = trunc i64 %19 to i32
  store i32 %20, i32* %6, align 4
  br label %21

21:                                               ; preds = %75, %2
  %22 = load i32, i32* %6, align 4
  %23 = icmp sgt i32 %22, 0
  br i1 %23, label %24, label %40

24:                                               ; preds = %21
  %25 = load i8*, i8** %3, align 8
  %26 = load i32, i32* %5, align 4
  %27 = sub nsw i32 %26, 1
  %28 = sext i32 %27 to i64
  %29 = getelementptr inbounds i8, i8* %25, i64 %28
  %30 = load i8, i8* %29, align 1
  %31 = sext i8 %30 to i32
  %32 = load i8*, i8** %4, align 8
  %33 = load i32, i32* %6, align 4
  %34 = sub nsw i32 %33, 1
  %35 = sext i32 %34 to i64
  %36 = getelementptr inbounds i8, i8* %32, i64 %35
  %37 = load i8, i8* %36, align 1
  %38 = sext i8 %37 to i32
  %39 = sub nsw i32 %31, %38
  store i32 %39, i32* %8, align 4
  br label %40

40:                                               ; preds = %24, %21
  %41 = load i32, i32* %6, align 4
  %42 = icmp sle i32 %41, 0
  br i1 %42, label %43, label %52

43:                                               ; preds = %40
  %44 = load i8*, i8** %3, align 8
  %45 = load i32, i32* %5, align 4
  %46 = sub nsw i32 %45, 1
  %47 = sext i32 %46 to i64
  %48 = getelementptr inbounds i8, i8* %44, i64 %47
  %49 = load i8, i8* %48, align 1
  %50 = sext i8 %49 to i32
  %51 = sub nsw i32 %50, 48
  store i32 %51, i32* %8, align 4
  br label %52

52:                                               ; preds = %43, %40
  %53 = load i32, i32* %8, align 4
  %54 = load i32, i32* %9, align 4
  %55 = sub nsw i32 %53, %54
  %56 = add nsw i32 %55, 48
  store i32 %56, i32* %8, align 4
  %57 = load i32, i32* %8, align 4
  %58 = icmp slt i32 %57, 48
  br i1 %58, label %59, label %62

59:                                               ; preds = %52
  %60 = load i32, i32* %8, align 4
  %61 = add nsw i32 %60, 10
  store i32 %61, i32* %8, align 4
  store i32 1, i32* %9, align 4
  br label %63

62:                                               ; preds = %52
  store i32 0, i32* %9, align 4
  br label %63

63:                                               ; preds = %62, %59
  %64 = load i32, i32* %8, align 4
  %65 = trunc i32 %64 to i8
  %66 = load i32, i32* %10, align 4
  %67 = sext i32 %66 to i64
  %68 = getelementptr inbounds [1000 x i8], [1000 x i8]* %12, i64 0, i64 %67
  store i8 %65, i8* %68, align 1
  %69 = load i32, i32* %10, align 4
  %70 = add nsw i32 %69, 1
  store i32 %70, i32* %10, align 4
  %71 = load i32, i32* %5, align 4
  %72 = add nsw i32 %71, -1
  store i32 %72, i32* %5, align 4
  %73 = load i32, i32* %6, align 4
  %74 = add nsw i32 %73, -1
  store i32 %74, i32* %6, align 4
  br label %75

75:                                               ; preds = %63
  %76 = load i32, i32* %5, align 4
  %77 = icmp sgt i32 %76, 0
  br i1 %77, label %21, label %78

78:                                               ; preds = %75
  %79 = getelementptr inbounds [1000 x i8], [1000 x i8]* %12, i64 0, i64 0
  %80 = call i64 @strlen(i8* %79) #4
  %81 = trunc i64 %80 to i32
  store i32 %81, i32* %11, align 4
  %82 = load i32, i32* %11, align 4
  %83 = sub nsw i32 %82, 1
  store i32 %83, i32* %7, align 4
  br label %84

84:                                               ; preds = %104, %78
  %85 = load i32, i32* %7, align 4
  %86 = sext i32 %85 to i64
  %87 = getelementptr inbounds [1000 x i8], [1000 x i8]* %12, i64 0, i64 %86
  %88 = load i8, i8* %87, align 1
  %89 = sext i8 %88 to i32
  %90 = icmp eq i32 %89, 48
  br i1 %90, label %91, label %95

91:                                               ; preds = %84
  %92 = load i32, i32* %7, align 4
  %93 = sext i32 %92 to i64
  %94 = getelementptr inbounds [1000 x i8], [1000 x i8]* %12, i64 0, i64 %93
  store i8 0, i8* %94, align 1
  br label %95

95:                                               ; preds = %91, %84
  %96 = load i32, i32* %7, align 4
  %97 = sext i32 %96 to i64
  %98 = getelementptr inbounds [1000 x i8], [1000 x i8]* %12, i64 0, i64 %97
  %99 = load i8, i8* %98, align 1
  %100 = sext i8 %99 to i32
  %101 = icmp ne i32 %100, 48
  br i1 %101, label %102, label %103

102:                                              ; preds = %95
  br label %107

103:                                              ; preds = %95
  br label %104

104:                                              ; preds = %103
  %105 = load i32, i32* %7, align 4
  %106 = add nsw i32 %105, -1
  store i32 %106, i32* %7, align 4
  br label %84

107:                                              ; preds = %102
  %108 = getelementptr inbounds [1000 x i8], [1000 x i8]* %12, i64 0, i64 0
  %109 = call i64 @strlen(i8* %108) #4
  %110 = sub i64 %109, 1
  %111 = trunc i64 %110 to i32
  store i32 %111, i32* %11, align 4
  store i32 0, i32* %7, align 4
  br label %112

112:                                              ; preds = %137, %107
  %113 = load i32, i32* %7, align 4
  %114 = load i32, i32* %11, align 4
  %115 = sdiv i32 %114, 2
  %116 = icmp sle i32 %113, %115
  br i1 %116, label %117, label %140

117:                                              ; preds = %112
  %118 = load i32, i32* %7, align 4
  %119 = sext i32 %118 to i64
  %120 = getelementptr inbounds [1000 x i8], [1000 x i8]* %12, i64 0, i64 %119
  %121 = load i8, i8* %120, align 1
  store i8 %121, i8* %13, align 1
  %122 = load i32, i32* %11, align 4
  %123 = load i32, i32* %7, align 4
  %124 = sub nsw i32 %122, %123
  %125 = sext i32 %124 to i64
  %126 = getelementptr inbounds [1000 x i8], [1000 x i8]* %12, i64 0, i64 %125
  %127 = load i8, i8* %126, align 1
  %128 = load i32, i32* %7, align 4
  %129 = sext i32 %128 to i64
  %130 = getelementptr inbounds [1000 x i8], [1000 x i8]* %12, i64 0, i64 %129
  store i8 %127, i8* %130, align 1
  %131 = load i8, i8* %13, align 1
  %132 = load i32, i32* %11, align 4
  %133 = load i32, i32* %7, align 4
  %134 = sub nsw i32 %132, %133
  %135 = sext i32 %134 to i64
  %136 = getelementptr inbounds [1000 x i8], [1000 x i8]* %12, i64 0, i64 %135
  store i8 %131, i8* %136, align 1
  br label %137

137:                                              ; preds = %117
  %138 = load i32, i32* %7, align 4
  %139 = add nsw i32 %138, 1
  store i32 %139, i32* %7, align 4
  br label %112

140:                                              ; preds = %112
  %141 = getelementptr inbounds [1000 x i8], [1000 x i8]* %12, i64 0, i64 0
  %142 = call i32 (i8*, ...) @printf(i8* getelementptr inbounds ([3 x i8], [3 x i8]* @.str.1, i64 0, i64 0), i8* %141)
  ret void
}

declare dso_local i32 @printf(i8*, ...) #2

; Function Attrs: nounwind readonly
declare dso_local i64 @strlen(i8*) #3


!llvm.module.flags = !{!0}
!llvm.ident = !{!1}

!0 = !{i32 1, !"wchar_size", i32 4}
!1 = !{!"clang version 10.0.0-4ubuntu1 "}
